; Function Attrs: nounwind uwtable
define float @b2WheelJoint_GetMotorTorque(i64 %0) local_unnamed_addr #0 {
  %.sroa.2.0.extract.shift = lshr i64 %0, 32
  %2 = trunc nuw i64 %.sroa.2.0.extract.shift to i32
  %3 = and i32 %2, 65535
  %4 = tail call ptr @b2GetWorld(i32 noundef %3) #10
  %5 = tail call ptr @b2GetJointSimCheckType(i64 %0, i32 noundef 7) #10
  %6 = getelementptr inbounds nuw i8, ptr %4, i64 1768
  %7 = load float, ptr %6, align 8, !tbaa !8
  %8 = getelementptr inbounds nuw i8, ptr %5, i64 60
  %9 = load float, ptr %8, align 4, !tbaa !3
  %10 = fmul float %7, %9
  ret float %10
}